#include <math.h>
#include <stdio.h>
#include <stdlib.h>
#include <string.h>

main()
{
  int n,i;
  double a,b,c,H,p,q;
  scanf("%d",&n);
  for(i=0;i<n;i++)
  {
  scanf("%lf %lf %lf",&a,&b,&c); 
  p=-b/(2*a); H=b*b-4*a*c;
           if(H>1e-6) {q=sqrt(H)/(2*a);printf("x1=%.5f;x2=%.5f\n",p+q,p-q);} 
     else{ if(fabs(H)<=1e-6) {printf("x1=x2=%.5f\n",p);}   
     else{        q=sqrt(-H)/(2*a);  if(p!=0) printf("x1=%.5f+%.5fi;x2=%.5f-%.5fi\n",p,q,p,q);
                                     else     printf("x1=0.00000+%.5fi;x2=0.00000-%.5fi\n",q,q);
          }}
  }
}
      