; ModuleID = '27/2229.c'
source_filename = "27/2229.c"
target datalayout = "e-m:e-p270:32:32-p271:32:32-p272:64:64-i64:64-f80:128-n8:16:32:64-S128"
target triple = "x86_64-pc-linux-gnu"

@.str = private unnamed_addr constant [3 x i8] c"%d\00", align 1
@.str.1 = private unnamed_addr constant [12 x i8] c"%lf %lf %lf\00", align 1
@.str.2 = private unnamed_addr constant [17 x i8] c"x1=%.5f;x2=%.5f\0A\00", align 1
@.str.3 = private unnamed_addr constant [12 x i8] c"x1=x2=%.5f\0A\00", align 1
@.str.4 = private unnamed_addr constant [29 x i8] c"x1=%.5f+%.5fi;x2=%.5f-%.5fi\0A\00", align 1
@.str.5 = private unnamed_addr constant [35 x i8] c"x1=0.00000+%.5fi;x2=0.00000-%.5fi\0A\00", align 1

; Function Attrs: noinline nounwind uwtable
define dso_local i32 @main() #0 {
  %1 = alloca i32, align 4
  %2 = alloca i32, align 4
  %3 = alloca i32, align 4
  %4 = alloca double, align 8
  %5 = alloca double, align 8
  %6 = alloca double, align 8
  %7 = alloca double, align 8
  %8 = alloca double, align 8
  %9 = alloca double, align 8
  store i32 0, i32* %1, align 4
  %10 = call i32 (i8*, ...) @__isoc99_scanf(i8* getelementptr inbounds ([3 x i8], [3 x i8]* @.str, i64 0, i64 0), i32* %2)
  store i32 0, i32* %3, align 4
  br label %11

11:                                               ; preds = %74, %0
  %12 = load i32, i32* %3, align 4
  %13 = load i32, i32* %2, align 4
  %14 = icmp slt i32 %12, %13
  br i1 %14, label %15, label %77

15:                                               ; preds = %11
  %16 = call i32 (i8*, ...) @__isoc99_scanf(i8* getelementptr inbounds ([12 x i8], [12 x i8]* @.str.1, i64 0, i64 0), double* %4, double* %5, double* %6)
  %17 = load double, double* %5, align 8
  %18 = fneg double %17
  %19 = load double, double* %4, align 8
  %20 = fmul double 2.000000e+00, %19
  %21 = fdiv double %18, %20
  store double %21, double* %8, align 8
  %22 = load double, double* %5, align 8
  %23 = load double, double* %5, align 8
  %24 = fmul double %22, %23
  %25 = load double, double* %4, align 8
  %26 = fmul double 4.000000e+00, %25
  %27 = load double, double* %6, align 8
  %28 = fmul double %26, %27
  %29 = fsub double %24, %28
  store double %29, double* %7, align 8
  %30 = load double, double* %7, align 8
  %31 = fcmp ogt double %30, 0x3EB0C6F7A0B5ED8D
  br i1 %31, label %32, label %45

32:                                               ; preds = %15
  %33 = load double, double* %7, align 8
  %34 = call double @sqrt(double %33) #4
  %35 = load double, double* %4, align 8
  %36 = fmul double 2.000000e+00, %35
  %37 = fdiv double %34, %36
  store double %37, double* %9, align 8
  %38 = load double, double* %8, align 8
  %39 = load double, double* %9, align 8
  %40 = fadd double %38, %39
  %41 = load double, double* %8, align 8
  %42 = load double, double* %9, align 8
  %43 = fsub double %41, %42
  %44 = call i32 (i8*, ...) @printf(i8* getelementptr inbounds ([17 x i8], [17 x i8]* @.str.2, i64 0, i64 0), double %40, double %43)
  br label %73

45:                                               ; preds = %15
  %46 = load double, double* %7, align 8
  %47 = call double @llvm.fabs.f64(double %46)
  %48 = fcmp ole double %47, 0x3EB0C6F7A0B5ED8D
  br i1 %48, label %49, label %52

49:                                               ; preds = %45
  %50 = load double, double* %8, align 8
  %51 = call i32 (i8*, ...) @printf(i8* getelementptr inbounds ([12 x i8], [12 x i8]* @.str.3, i64 0, i64 0), double %50)
  br label %72

52:                                               ; preds = %45
  %53 = load double, double* %7, align 8
  %54 = fneg double %53
  %55 = call double @sqrt(double %54) #4
  %56 = load double, double* %4, align 8
  %57 = fmul double 2.000000e+00, %56
  %58 = fdiv double %55, %57
  store double %58, double* %9, align 8
  %59 = load double, double* %8, align 8
  %60 = fcmp une double %59, 0.000000e+00
  br i1 %60, label %61, label %67

61:                                               ; preds = %52
  %62 = load double, double* %8, align 8
  %63 = load double, double* %9, align 8
  %64 = load double, double* %8, align 8
  %65 = load double, double* %9, align 8
  %66 = call i32 (i8*, ...) @printf(i8* getelementptr inbounds ([29 x i8], [29 x i8]* @.str.4, i64 0, i64 0), double %62, double %63, double %64, double %65)
  br label %71

67:                                               ; preds = %52
  %68 = load double, double* %9, align 8
  %69 = load double, double* %9, align 8
  %70 = call i32 (i8*, ...) @printf(i8* getelementptr inbounds ([35 x i8], [35 x i8]* @.str.5, i64 0, i64 0), double %68, double %69)
  br label %71

71:                                               ; preds = %67, %61
  br label %72

72:                                               ; preds = %71, %49
  br label %73

73:                                               ; preds = %72, %32
  br label %74

74:                                               ; preds = %73
  %75 = load i32, i32* %3, align 4
  %76 = add nsw i32 %75, 1
  store i32 %76, i32* %3, align 4
  br label %11

77:                                               ; preds = %11
  %78 = load i32, i32* %1, align 4
  ret i32 %78
}

declare dso_local i32 @__isoc99_scanf(i8*, ...) #1

; Function Attrs: nounwind
declare dso_local double @sqrt(double) #2

declare dso_local i32 @printf(i8*, ...) #1

; Function Attrs: nounwind readnone speculatable willreturn
declare double @llvm.fabs.f64(double) #3


!llvm.module.flags = !{!0}
!llvm.ident = !{!1}

!0 = !{i32 1, !"wchar_size", i32 4}
!1 = !{!"clang version 10.0.0-4ubuntu1 "}
